; ModuleID = 'source-C-CXX/56/1966.c'
source_filename = "source-C-CXX/56/1966.c"
target datalayout = "e-m:e-p270:32:32-p271:32:32-p272:64:64-i64:64-f80:128-n8:16:32:64-S128"
target triple = "x86_64-pc-linux-gnu"

@.str = private unnamed_addr constant [3 x i8] c"%d\00", align 1
@.str.1 = private unnamed_addr constant [3 x i8] c"%s\00", align 1
@.str.2 = private unnamed_addr constant [3 x i8] c"er\00", align 1
@.str.3 = private unnamed_addr constant [3 x i8] c"ly\00", align 1

; Function Attrs: nofree nounwind sspstrong uwtable
define dso_local i32 @main() local_unnamed_addr #0 {
  %1 = alloca i32, align 4
  %2 = alloca [20 x i8], align 16
  %3 = alloca [20 x i8], align 16
  %4 = bitcast i32* %1 to i8*
  call void @llvm.lifetime.start.p0i8(i64 4, i8* nonnull %4) #7
  %5 = getelementptr inbounds [20 x i8], [20 x i8]* %2, i64 0, i64 0
  call void @llvm.lifetime.start.p0i8(i64 20, i8* nonnull %5) #7
  %6 = getelementptr inbounds [20 x i8], [20 x i8]* %3, i64 0, i64 0
  call void @llvm.lifetime.start.p0i8(i64 20, i8* nonnull %6) #7
  %7 = call i32 (i8*, ...) @__isoc99_scanf(i8* getelementptr inbounds ([3 x i8], [3 x i8]* @.str, i64 0, i64 0), i32* nonnull %1)
  %8 = bitcast [20 x i8]* %3 to i32*
  %9 = load i32, i32* %1, align 4, !tbaa !5
  %10 = icmp sgt i32 %9, 0
  br i1 %10, label %11, label %42

11:                                               ; preds = %0, %38
  %12 = phi i32 [ %39, %38 ], [ 0, %0 ]
  %13 = call i32 (i8*, ...) @__isoc99_scanf(i8* getelementptr inbounds ([3 x i8], [3 x i8]* @.str.1, i64 0, i64 0), i8* nonnull %5)
  %14 = call i64 @strlen(i8* noundef nonnull %5) #8
  %15 = trunc i64 %14 to i32
  %16 = icmp sgt i32 %15, 0
  br i1 %16, label %17, label %38

17:                                               ; preds = %11
  %18 = and i64 %14, 4294967295
  br label %19

19:                                               ; preds = %17, %35
  %20 = phi i64 [ 0, %17 ], [ %36, %35 ]
  %21 = getelementptr inbounds [20 x i8], [20 x i8]* %2, i64 0, i64 %20
  %22 = load i8, i8* %21, align 1, !tbaa !9
  switch i8 %22, label %35 [
    i8 101, label %23
    i8 108, label %23
    i8 105, label %23
  ]

23:                                               ; preds = %19, %19, %19
  %24 = call i8* @strcpy(i8* noundef nonnull %6, i8* noundef nonnull %21) #7
  %25 = call i32 @bcmp(i8* noundef nonnull dereferenceable(3) %6, i8* noundef nonnull dereferenceable(3) getelementptr inbounds ([3 x i8], [3 x i8]* @.str.2, i64 0, i64 0), i64 3)
  %26 = icmp eq i32 %25, 0
  br i1 %26, label %33, label %27

27:                                               ; preds = %23
  %28 = call i32 @bcmp(i8* noundef nonnull dereferenceable(3) %6, i8* noundef nonnull dereferenceable(3) getelementptr inbounds ([3 x i8], [3 x i8]* @.str.3, i64 0, i64 0), i64 3)
  %29 = icmp eq i32 %28, 0
  %30 = load i32, i32* %8, align 16
  %31 = icmp eq i32 %30, 6778473
  %32 = select i1 %29, i1 true, i1 %31
  br i1 %32, label %33, label %35

33:                                               ; preds = %27, %23
  store i8 0, i8* %21, align 1, !tbaa !9
  %34 = call i32 @puts(i8* nonnull %5)
  br label %35

35:                                               ; preds = %27, %19, %33
  %36 = add nuw nsw i64 %20, 1
  %37 = icmp eq i64 %36, %18
  br i1 %37, label %38, label %19, !llvm.loop !10

38:                                               ; preds = %35, %11
  %39 = add nuw nsw i32 %12, 1
  %40 = load i32, i32* %1, align 4, !tbaa !5
  %41 = icmp slt i32 %39, %40
  br i1 %41, label %11, label %42, !llvm.loop !12

42:                                               ; preds = %38, %0
  call void @llvm.lifetime.end.p0i8(i64 20, i8* nonnull %6) #7
  call void @llvm.lifetime.end.p0i8(i64 20, i8* nonnull %5) #7
  call void @llvm.lifetime.end.p0i8(i64 4, i8* nonnull %4) #7
  ret i32 0
}

; Function Attrs: argmemonly mustprogress nofree nosync nounwind willreturn
declare void @llvm.lifetime.start.p0i8(i64 immarg, i8* nocapture) #1

; Function Attrs: nofree nounwind
declare noundef i32 @__isoc99_scanf(i8* nocapture noundef readonly, ...) local_unnamed_addr #2

; Function Attrs: argmemonly mustprogress nofree nounwind readonly willreturn
declare i64 @strlen(i8* nocapture) local_unnamed_addr #3

; Function Attrs: argmemonly mustprogress nofree nounwind willreturn
declare i8* @strcpy(i8* noalias returned writeonly, i8* noalias nocapture readonly) local_unnamed_addr #4

; Function Attrs: argmemonly mustprogress nofree nosync nounwind willreturn
declare void @llvm.lifetime.end.p0i8(i64 immarg, i8* nocapture) #1

; Function Attrs: argmemonly nofree nounwind readonly willreturn
declare i32 @bcmp(i8* nocapture, i8* nocapture, i64) local_unnamed_addr #5

; Function Attrs: nofree nounwind
declare noundef i32 @puts(i8* nocapture noundef readonly) local_unnamed_addr #6


!llvm.module.flags = !{!0, !1, !2, !3}
!llvm.ident = !{!4}

!0 = !{i32 1, !"wchar_size", i32 4}
!1 = !{i32 7, !"PIC Level", i32 2}
!2 = !{i32 7, !"PIE Level", i32 2}
!3 = !{i32 7, !"uwtable", i32 1}
!4 = !{!"clang version 13.0.0"}
!5 = !{!6, !6, i64 0}
!6 = !{!"int", !7, i64 0}
!7 = !{!"omnipotent char", !8, i64 0}
!8 = !{!"Simple C/C++ TBAA"}
!9 = !{!7, !7, i64 0}
!10 = distinct !{!10, !11}
!11 = !{!"llvm.loop.mustprogress"}
!12 = distinct !{!12, !11}
